; ModuleID = 'source-C-CXX/53/1690.cpp'
source_filename = "source-C-CXX/53/1690.cpp"
target datalayout = "e-m:e-p270:32:32-p271:32:32-p272:64:64-i64:64-f80:128-n8:16:32:64-S128"
target triple = "x86_64-pc-linux-gnu"

%"class.std::ios_base::Init" = type { i8 }
%"class.std::basic_istream" = type { i32 (...)**, i64, %"class.std::basic_ios" }
%"class.std::basic_ios" = type { %"class.std::ios_base", %"class.std::basic_ostream"*, i8, i8, %"class.std::basic_streambuf"*, %"class.std::ctype"*, %"class.std::num_put"*, %"class.std::num_get"* }
%"class.std::ios_base" = type { i32 (...)**, i64, i64, i32, i32, i32, %"struct.std::ios_base::_Callback_list"*, %"struct.std::ios_base::_Words", [8 x %"struct.std::ios_base::_Words"], i32, %"struct.std::ios_base::_Words"*, %"class.std::locale" }
%"struct.std::ios_base::_Callback_list" = type { %"struct.std::ios_base::_Callback_list"*, void (i32, %"class.std::ios_base"*, i32)*, i32, i32 }
%"struct.std::ios_base::_Words" = type { i8*, i64 }
%"class.std::locale" = type { %"class.std::locale::_Impl"* }
%"class.std::locale::_Impl" = type { i32, %"class.std::locale::facet"**, i64, %"class.std::locale::facet"**, i8** }
%"class.std::locale::facet" = type <{ i32 (...)**, i32, [4 x i8] }>
%"class.std::basic_ostream" = type { i32 (...)**, %"class.std::basic_ios" }
%"class.std::basic_streambuf" = type { i32 (...)**, i8*, i8*, i8*, i8*, i8*, i8*, %"class.std::locale" }
%"class.std::ctype" = type <{ %"class.std::locale::facet.base", [4 x i8], %struct.__locale_struct*, i8, [7 x i8], i32*, i32*, i16*, i8, [256 x i8], [256 x i8], i8, [6 x i8] }>
%"class.std::locale::facet.base" = type <{ i32 (...)**, i32 }>
%struct.__locale_struct = type { [13 x %struct.__locale_data*], i16*, i32*, i32*, [13 x i8*] }
%struct.__locale_data = type opaque
%"class.std::num_put" = type { %"class.std::locale::facet.base", [4 x i8] }
%"class.std::num_get" = type { %"class.std::locale::facet.base", [4 x i8] }

@_ZStL8__ioinit = internal global %"class.std::ios_base::Init" zeroinitializer, align 1
@__dso_handle = external hidden global i8
@n = dso_local global i32 0, align 4
@k = dso_local global i32 0, align 4
@get_n = dso_local local_unnamed_addr global i32 1, align 4
@temp = dso_local local_unnamed_addr global i32 0, align 4
@_ZSt3cin = external global %"class.std::basic_istream", align 8
@_ZSt4cout = external global %"class.std::basic_ostream", align 8
@llvm.global_ctors = appending global [1 x { i32, void ()*, i8* }] [{ i32, void ()*, i8* } { i32 65535, void ()* @_GLOBAL__sub_I_1690.cpp, i8* null }]

declare void @_ZNSt8ios_base4InitC1Ev(%"class.std::ios_base::Init"* nonnull align 1 dereferenceable(1)) unnamed_addr #0

; Function Attrs: nounwind
declare void @_ZNSt8ios_base4InitD1Ev(%"class.std::ios_base::Init"* nonnull align 1 dereferenceable(1)) unnamed_addr #1

; Function Attrs: nofree nounwind
declare i32 @__cxa_atexit(void (i8*)*, i8*, i8*) local_unnamed_addr #2

; Function Attrs: mustprogress norecurse sspstrong uwtable
define dso_local i32 @main() local_unnamed_addr #3 {
  %1 = tail call nonnull align 8 dereferenceable(16) %"class.std::basic_istream"* @_ZNSirsERi(%"class.std::basic_istream"* nonnull align 8 dereferenceable(16) @_ZSt3cin, i32* nonnull align 4 dereferenceable(4) @n)
  %2 = tail call nonnull align 8 dereferenceable(16) %"class.std::basic_istream"* @_ZNSirsERi(%"class.std::basic_istream"* nonnull align 8 dereferenceable(16) %1, i32* nonnull align 4 dereferenceable(4) @k)
  %3 = load i32, i32* @n, align 4, !tbaa !5
  %4 = add nsw i32 %3, -1
  %5 = load i32, i32* @k, align 4
  %6 = load i32, i32* @temp, align 4, !tbaa !5
  br label %7

7:                                                ; preds = %29, %0
  %8 = phi i32 [ %6, %0 ], [ %19, %29 ]
  %9 = phi i32 [ %3, %0 ], [ %30, %29 ]
  %10 = icmp eq i32 %3, %9
  br i1 %10, label %11, label %14

11:                                               ; preds = %7
  %12 = load i32, i32* @get_n, align 4, !tbaa !5
  %13 = mul nsw i32 %12, %3
  br label %17

14:                                               ; preds = %7
  %15 = mul nsw i32 %8, %3
  %16 = sdiv i32 %15, %4
  br label %17

17:                                               ; preds = %14, %11
  %18 = phi i32 [ %16, %14 ], [ %13, %11 ]
  %19 = add nsw i32 %18, %5
  %20 = icmp eq i32 %9, 1
  br i1 %20, label %31, label %21

21:                                               ; preds = %17
  %22 = srem i32 %19, %4
  %23 = icmp eq i32 %22, 0
  br i1 %23, label %24, label %26

24:                                               ; preds = %21
  %25 = add nsw i32 %9, -1
  br label %29

26:                                               ; preds = %21
  %27 = load i32, i32* @get_n, align 4, !tbaa !5
  %28 = add nsw i32 %27, 1
  store i32 %28, i32* @get_n, align 4, !tbaa !5
  br label %29

29:                                               ; preds = %26, %24
  %30 = phi i32 [ %3, %26 ], [ %25, %24 ]
  br label %7

31:                                               ; preds = %17
  store i32 %19, i32* @temp, align 4, !tbaa !5
  %32 = tail call nonnull align 8 dereferenceable(8) %"class.std::basic_ostream"* @_ZNSolsEi(%"class.std::basic_ostream"* nonnull align 8 dereferenceable(8) @_ZSt4cout, i32 %19)
  ret i32 0
}

declare nonnull align 8 dereferenceable(16) %"class.std::basic_istream"* @_ZNSirsERi(%"class.std::basic_istream"* nonnull align 8 dereferenceable(16), i32* nonnull align 4 dereferenceable(4)) local_unnamed_addr #0

; Function Attrs: mustprogress nofree nosync nounwind sspstrong uwtable
define dso_local void @_Z4funci(i32 %0) local_unnamed_addr #4 {
  %2 = load i32, i32* @n, align 4, !tbaa !5
  %3 = add nsw i32 %2, -1
  %4 = load i32, i32* @k, align 4
  %5 = load i32, i32* @temp, align 4, !tbaa !5
  br label %6

6:                                                ; preds = %26, %1
  %7 = phi i32 [ %5, %1 ], [ %19, %26 ]
  %8 = phi i32 [ %0, %1 ], [ %27, %26 ]
  %9 = icmp eq i32 %2, %8
  br i1 %9, label %10, label %14

10:                                               ; preds = %6
  %11 = load i32, i32* @get_n, align 4, !tbaa !5
  %12 = mul nsw i32 %11, %2
  %13 = add nsw i32 %12, %4
  br label %18

14:                                               ; preds = %6
  %15 = mul nsw i32 %7, %2
  %16 = sdiv i32 %15, %3
  %17 = add nsw i32 %4, %16
  br label %18

18:                                               ; preds = %14, %10
  %19 = phi i32 [ %17, %14 ], [ %13, %10 ]
  %20 = icmp eq i32 %8, 1
  br i1 %20, label %31, label %21

21:                                               ; preds = %18
  %22 = srem i32 %19, %3
  %23 = icmp eq i32 %22, 0
  br i1 %23, label %24, label %28

24:                                               ; preds = %21
  %25 = add nsw i32 %8, -1
  br label %26

26:                                               ; preds = %24, %28
  %27 = phi i32 [ %25, %24 ], [ %2, %28 ]
  br label %6

28:                                               ; preds = %21
  %29 = load i32, i32* @get_n, align 4, !tbaa !5
  %30 = add nsw i32 %29, 1
  store i32 %30, i32* @get_n, align 4, !tbaa !5
  br label %26

31:                                               ; preds = %18
  store i32 %19, i32* @temp, align 4, !tbaa !5
  ret void
}

declare nonnull align 8 dereferenceable(8) %"class.std::basic_ostream"* @_ZNSolsEi(%"class.std::basic_ostream"* nonnull align 8 dereferenceable(8), i32) local_unnamed_addr #0

; Function Attrs: sspstrong uwtable
define internal void @_GLOBAL__sub_I_1690.cpp() #5 section ".text.startup" {
  tail call void @_ZNSt8ios_base4InitC1Ev(%"class.std::ios_base::Init"* nonnull align 1 dereferenceable(1) @_ZStL8__ioinit)
  %1 = tail call i32 @__cxa_atexit(void (i8*)* bitcast (void (%"class.std::ios_base::Init"*)* @_ZNSt8ios_base4InitD1Ev to void (i8*)*), i8* getelementptr inbounds (%"class.std::ios_base::Init", %"class.std::ios_base::Init"* @_ZStL8__ioinit, i64 0, i32 0), i8* nonnull @__dso_handle) #6
  ret void
}


!llvm.module.flags = !{!0, !1, !2, !3}
!llvm.ident = !{!4}

!0 = !{i32 1, !"wchar_size", i32 4}
!1 = !{i32 7, !"PIC Level", i32 2}
!2 = !{i32 7, !"PIE Level", i32 2}
!3 = !{i32 7, !"uwtable", i32 1}
!4 = !{!"clang version 13.0.0"}
!5 = !{!6, !6, i64 0}
!6 = !{!"int", !7, i64 0}
!7 = !{!"omnipotent char", !8, i64 0}
!8 = !{!"Simple C++ TBAA"}
